target datalayout = "e-m:e-p270:32:32-p271:32:32-p272:64:64-i64:64-i128:128-f80:128-n8:16:32:64-S128"
target triple = "x86_64-pc-linux-gnu"

%"class.std::__cxx11::basic_string" = type { %"struct.std::__cxx11::basic_string<char>::_Alloc_hider", i64, %union.anon }
%"struct.std::__cxx11::basic_string<char>::_Alloc_hider" = type { ptr }
%union.anon = type { i64, [8 x i8] }
%"class.std::allocator" = type { i8 }
%"class.std::optional" = type { %"struct.std::_Optional_base" }
%"struct.std::_Optional_base" = type { %"struct.std::_Optional_payload" }
%"struct.std::_Optional_payload" = type { %"struct.std::_Optional_payload.base", [7 x i8] }
%"struct.std::_Optional_payload.base" = type { %"struct.std::_Optional_payload_base.base" }
%"struct.std::_Optional_payload_base.base" = type <{ %"union.std::_Optional_payload_base<std::__cxx11::basic_string<char>>::_Storage", i8 }>
%"union.std::_Optional_payload_base<std::__cxx11::basic_string<char>>::_Storage" = type { %"class.std::__cxx11::basic_string" }
%struct.passwd = type { ptr, ptr, i32, i32, ptr, ptr, ptr }

@.str = private unnamed_addr constant [5 x i8] c"USER\00", align 1
@.str.3 = private unnamed_addr constant [1 x i8] zeroinitializer, align 1
@.str.4 = private unnamed_addr constant [28 x i8] c"cannot figure out user name\00", align 1
@_ZTIN3nix5ErrorE = linkonce_odr constant { ptr, ptr, ptr } { ptr getelementptr inbounds (ptr, ptr @_ZTVN10__cxxabiv120__si_class_type_infoE, i64 2), ptr @_ZTSN3nix5ErrorE, ptr @_ZTIN3nix9BaseErrorE }, comdat, align 8

; Function Attrs: mustprogress nounwind uwtable
define linkonce_odr noundef i64 @_ZNKSt7__cxx1112basic_stringIcSt11char_traitsIcESaIcEE4sizeEv(ptr noundef nonnull align 8 dereferenceable(32) %0) #2 comdat align 2 {
  %2 = alloca ptr, align 8
  store ptr %0, ptr %2, align 8
  %3 = load ptr, ptr %2, align 8
  %4 = getelementptr inbounds %"class.std::__cxx11::basic_string", ptr %3, i32 0, i32 1
  %5 = load i64, ptr %4, align 8
  ret i64 %5
}

; Function Attrs: mustprogress nounwind uwtable
define linkonce_odr noundef zeroext i1 @_ZNKSt7__cxx1112basic_stringIcSt11char_traitsIcESaIcEE5emptyEv(ptr noundef nonnull align 8 dereferenceable(32) %0) #2 comdat align 2 {
  %2 = alloca ptr, align 8
  store ptr %0, ptr %2, align 8
  %3 = load ptr, ptr %2, align 8
  %4 = call noundef i64 @_ZNKSt7__cxx1112basic_stringIcSt11char_traitsIcESaIcEE4sizeEv(ptr noundef nonnull align 8 dereferenceable(32) %3) #1
  %5 = icmp eq i64 %4, 0
  ret i1 %5
}

; Function Attrs: mustprogress uwtable
define void @_ZN3nix11getUserNameB5cxx11Ev(ptr dead_on_unwind noalias writable sret(%"class.std::__cxx11::basic_string") align 8 %0) #3 personality ptr @__gxx_personality_v0 {
  %2 = alloca ptr, align 8
  %3 = alloca ptr, align 8
  %4 = alloca i1, align 1
  %5 = alloca %"class.std::allocator", align 1
  %6 = alloca i1, align 1
  %7 = alloca ptr, align 8
  %8 = alloca i32, align 4
  %9 = alloca %"class.std::optional", align 8
  %10 = alloca %"class.std::__cxx11::basic_string", align 8
  %11 = alloca %"class.std::allocator", align 1
  %12 = alloca i1, align 1
  %13 = alloca i1, align 1
  %14 = alloca i1, align 1
  %15 = alloca %"class.std::__cxx11::basic_string", align 8
  %16 = alloca %"class.std::allocator", align 1
  %17 = alloca i1, align 1
  store ptr %0, ptr %2, align 8
  %18 = call i32 @geteuid() #1
  %19 = call ptr @getpwuid(i32 noundef %18)
  store ptr %19, ptr %3, align 8
  store i1 false, ptr %4, align 1
  %20 = load ptr, ptr %3, align 8
  %21 = icmp ne ptr %20, null
  store i1 false, ptr %6, align 1
  store i1 false, ptr %12, align 1
  store i1 false, ptr %13, align 1
  store i1 false, ptr %14, align 1
  br i1 %21, label %22, label %27

22:                                               ; preds = %1
  %23 = load ptr, ptr %3, align 8
  %24 = getelementptr inbounds %struct.passwd, ptr %23, i32 0, i32 0
  %25 = load ptr, ptr %24, align 8
  call void @_ZNSaIcEC1Ev(ptr noundef nonnull align 1 dereferenceable(1) %5) #1
  store i1 true, ptr %6, align 1
  invoke void @_ZNSt7__cxx1112basic_stringIcSt11char_traitsIcESaIcEEC2IS3_EEPKcRKS3_(ptr noundef nonnull align 8 dereferenceable(32) %0, ptr noundef %25, ptr noundef nonnull align 1 dereferenceable(1) %5)
          to label %26 unwind label %49

26:                                               ; preds = %22
  br label %31

27:                                               ; preds = %1
  call void @_ZNSaIcEC1Ev(ptr noundef nonnull align 1 dereferenceable(1) %11) #1
  store i1 true, ptr %12, align 1
  invoke void @_ZNSt7__cxx1112basic_stringIcSt11char_traitsIcESaIcEEC2IS3_EEPKcRKS3_(ptr noundef nonnull align 8 dereferenceable(32) %10, ptr noundef @.str, ptr noundef nonnull align 1 dereferenceable(1) %11)
          to label %28 unwind label %53

28:                                               ; preds = %27
  store i1 true, ptr %13, align 1
  invoke void @_ZN3nix6getEnvERKNSt7__cxx1112basic_stringIcSt11char_traitsIcESaIcEEE(ptr dead_on_unwind writable sret(%"class.std::optional") align 8 %9, ptr noundef nonnull align 8 dereferenceable(32) %10)
          to label %29 unwind label %57

29:                                               ; preds = %28
  store i1 true, ptr %14, align 1
  invoke void @_ZNOSt8optionalINSt7__cxx1112basic_stringIcSt11char_traitsIcESaIcEEEE8value_orIRA1_KcEES5_OT_(ptr dead_on_unwind writable sret(%"class.std::__cxx11::basic_string") align 8 %0, ptr noundef nonnull align 8 dereferenceable(40) %9, ptr noundef nonnull align 1 dereferenceable(1) @.str.3)
          to label %30 unwind label %61

30:                                               ; preds = %29
  br label %31

31:                                               ; preds = %30, %26
  %32 = load i1, ptr %14, align 1
  br i1 %32, label %33, label %34

33:                                               ; preds = %31
  call void @_ZNSt8optionalINSt7__cxx1112basic_stringIcSt11char_traitsIcESaIcEEEED2Ev(ptr noundef nonnull align 8 dereferenceable(40) %9) #1
  br label %34

34:                                               ; preds = %33, %31
  %35 = load i1, ptr %13, align 1
  br i1 %35, label %36, label %37

36:                                               ; preds = %34
  call void @_ZNSt7__cxx1112basic_stringIcSt11char_traitsIcESaIcEED2Ev(ptr noundef nonnull align 8 dereferenceable(32) %10) #1
  br label %37

37:                                               ; preds = %36, %34
  %38 = load i1, ptr %12, align 1
  br i1 %38, label %39, label %40

39:                                               ; preds = %37
  call void @_ZNSaIcED1Ev(ptr noundef nonnull align 1 dereferenceable(1) %11) #1
  br label %40

40:                                               ; preds = %39, %37
  %41 = load i1, ptr %6, align 1
  br i1 %41, label %42, label %43

42:                                               ; preds = %40
  call void @_ZNSaIcED1Ev(ptr noundef nonnull align 1 dereferenceable(1) %5) #1
  br label %43

43:                                               ; preds = %42, %40
  %44 = call noundef zeroext i1 @_ZNKSt7__cxx1112basic_stringIcSt11char_traitsIcESaIcEE5emptyEv(ptr noundef nonnull align 8 dereferenceable(32) %0) #1
  br i1 %44, label %45, label %92

45:                                               ; preds = %43
  store i1 true, ptr %17, align 1
  %46 = call ptr @__cxa_allocate_exception(i64 376) #1
  call void @_ZNSaIcEC1Ev(ptr noundef nonnull align 1 dereferenceable(1) %16) #1
  invoke void @_ZNSt7__cxx1112basic_stringIcSt11char_traitsIcESaIcEEC2IS3_EEPKcRKS3_(ptr noundef nonnull align 8 dereferenceable(32) %15, ptr noundef @.str.4, ptr noundef nonnull align 1 dereferenceable(1) %16)
          to label %47 unwind label %80

47:                                               ; preds = %45
  invoke void @_ZN3nix5ErrorCI2NS_9BaseErrorEIJEEERKNSt7__cxx1112basic_stringIcSt11char_traitsIcESaIcEEEDpRKT_(ptr noundef nonnull align 8 dereferenceable(376) %46, ptr noundef nonnull align 8 dereferenceable(32) %15)
          to label %48 unwind label %84

48:                                               ; preds = %47
  store i1 false, ptr %17, align 1
  invoke void @__cxa_throw(ptr %46, ptr @_ZTIN3nix5ErrorE, ptr @_ZN3nix5ErrorD2Ev) #16
          to label %101 unwind label %84

49:                                               ; preds = %22
  %50 = landingpad { ptr, i32 }
          cleanup
  %51 = extractvalue { ptr, i32 } %50, 0
  store ptr %51, ptr %7, align 8
  %52 = extractvalue { ptr, i32 } %50, 1
  store i32 %52, ptr %8, align 4
  br label %76

53:                                               ; preds = %27
  %54 = landingpad { ptr, i32 }
          cleanup
  %55 = extractvalue { ptr, i32 } %54, 0
  store ptr %55, ptr %7, align 8
  %56 = extractvalue { ptr, i32 } %54, 1
  store i32 %56, ptr %8, align 4
  br label %72

57:                                               ; preds = %28
  %58 = landingpad { ptr, i32 }
          cleanup
  %59 = extractvalue { ptr, i32 } %58, 0
  store ptr %59, ptr %7, align 8
  %60 = extractvalue { ptr, i32 } %58, 1
  store i32 %60, ptr %8, align 4
  br label %68

61:                                               ; preds = %29
  %62 = landingpad { ptr, i32 }
          cleanup
  %63 = extractvalue { ptr, i32 } %62, 0
  store ptr %63, ptr %7, align 8
  %64 = extractvalue { ptr, i32 } %62, 1
  store i32 %64, ptr %8, align 4
  %65 = load i1, ptr %14, align 1
  br i1 %65, label %66, label %67

66:                                               ; preds = %61
  call void @_ZNSt8optionalINSt7__cxx1112basic_stringIcSt11char_traitsIcESaIcEEEED2Ev(ptr noundef nonnull align 8 dereferenceable(40) %9) #1
  br label %67

67:                                               ; preds = %66, %61
  br label %68

68:                                               ; preds = %67, %57
  %69 = load i1, ptr %13, align 1
  br i1 %69, label %70, label %71

70:                                               ; preds = %68
  call void @_ZNSt7__cxx1112basic_stringIcSt11char_traitsIcESaIcEED2Ev(ptr noundef nonnull align 8 dereferenceable(32) %10) #1
  br label %71

71:                                               ; preds = %70, %68
  br label %72

72:                                               ; preds = %71, %53
  %73 = load i1, ptr %12, align 1
  br i1 %73, label %74, label %75

74:                                               ; preds = %72
  call void @_ZNSaIcED1Ev(ptr noundef nonnull align 1 dereferenceable(1) %11) #1
  br label %75

75:                                               ; preds = %74, %72
  br label %76

76:                                               ; preds = %75, %49
  %77 = load i1, ptr %6, align 1
  br i1 %77, label %78, label %79

78:                                               ; preds = %76
  call void @_ZNSaIcED1Ev(ptr noundef nonnull align 1 dereferenceable(1) %5) #1
  br label %79

79:                                               ; preds = %78, %76
  br label %96

80:                                               ; preds = %45
  %81 = landingpad { ptr, i32 }
          cleanup
  %82 = extractvalue { ptr, i32 } %81, 0
  store ptr %82, ptr %7, align 8
  %83 = extractvalue { ptr, i32 } %81, 1
  store i32 %83, ptr %8, align 4
  br label %88

84:                                               ; preds = %48, %47
  %85 = landingpad { ptr, i32 }
          cleanup
  %86 = extractvalue { ptr, i32 } %85, 0
  store ptr %86, ptr %7, align 8
  %87 = extractvalue { ptr, i32 } %85, 1
  store i32 %87, ptr %8, align 4
  call void @_ZNSt7__cxx1112basic_stringIcSt11char_traitsIcESaIcEED2Ev(ptr noundef nonnull align 8 dereferenceable(32) %15) #1
  br label %88

88:                                               ; preds = %84, %80
  call void @_ZNSaIcED1Ev(ptr noundef nonnull align 1 dereferenceable(1) %16) #1
  %89 = load i1, ptr %17, align 1
  br i1 %89, label %90, label %91

90:                                               ; preds = %88
  call void @__cxa_free_exception(ptr %46) #1
  br label %91

91:                                               ; preds = %90, %88
  call void @_ZNSt7__cxx1112basic_stringIcSt11char_traitsIcESaIcEED2Ev(ptr noundef nonnull align 8 dereferenceable(32) %0) #1
  br label %96

92:                                               ; preds = %43
  store i1 true, ptr %4, align 1
  %93 = load i1, ptr %4, align 1
  br i1 %93, label %95, label %94

94:                                               ; preds = %92
  call void @_ZNSt7__cxx1112basic_stringIcSt11char_traitsIcESaIcEED2Ev(ptr noundef nonnull align 8 dereferenceable(32) %0) #1
  br label %95

95:                                               ; preds = %94, %92
  ret void

96:                                               ; preds = %91, %79
  %97 = load ptr, ptr %7, align 8
  %98 = load i32, ptr %8, align 4
  %99 = insertvalue { ptr, i32 } poison, ptr %97, 0
  %100 = insertvalue { ptr, i32 } %99, i32 %98, 1
  resume { ptr, i32 } %100

101:                                              ; preds = %48
  unreachable
}