; Function Attrs: mustprogress uwtable
define void @_ZN3nix11getUserNameB5cxx11Ev(ptr dead_on_unwind noalias writable sret(%"class.std::__cxx11::basic_string") align 8 %0) local_unnamed_addr #2 personality ptr @__gxx_personality_v0 {
  %2 = alloca %"class.std::allocator", align 1
  %3 = alloca %"class.std::optional", align 8
  %4 = alloca %"class.std::__cxx11::basic_string", align 8
  %5 = alloca %"class.std::allocator", align 1
  %6 = alloca %"class.std::__cxx11::basic_string", align 8
  %7 = alloca %"class.std::allocator", align 1
  %8 = tail call i32 @geteuid() #23
  %9 = tail call ptr @getpwuid(i32 noundef %8)
  %.not.not.not = icmp eq ptr %9, null
  br i1 %.not.not.not, label %12, label %10

10:                                               ; preds = %1
  %11 = load ptr, ptr %9, align 8
  call void @_ZNSaIcEC1Ev(ptr noundef nonnull align 1 dereferenceable(1) %2) #23
  invoke void @_ZNSt7__cxx1112basic_stringIcSt11char_traitsIcESaIcEEC2IS3_EEPKcRKS3_(ptr noundef nonnull align 8 dereferenceable(32) %0, ptr noundef %11, ptr noundef nonnull align 1 dereferenceable(1) %2)
          to label %.critedge34 unwind label %45

12:                                               ; preds = %1
  call void @_ZNSaIcEC1Ev(ptr noundef nonnull align 1 dereferenceable(1) %5) #23
  invoke void @_ZNSt7__cxx1112basic_stringIcSt11char_traitsIcESaIcEEC2IS3_EEPKcRKS3_(ptr noundef nonnull align 8 dereferenceable(32) %4, ptr noundef nonnull @.str, ptr noundef nonnull align 1 dereferenceable(1) %5)
          to label %13 unwind label %38

13:                                               ; preds = %12
  invoke void @_ZN3nix6getEnvERKNSt7__cxx1112basic_stringIcSt11char_traitsIcESaIcEEE(ptr dead_on_unwind nonnull writable sret(%"class.std::optional") align 8 %3, ptr noundef nonnull align 8 dereferenceable(32) %4)
          to label %14 unwind label %40

14:                                               ; preds = %13
  invoke void @_ZNOSt8optionalINSt7__cxx1112basic_stringIcSt11char_traitsIcESaIcEEEE8value_orIRA1_KcEES5_OT_(ptr dead_on_unwind writable sret(%"class.std::__cxx11::basic_string") align 8 %0, ptr noundef nonnull align 8 dereferenceable(40) %3, ptr noundef nonnull align 1 dereferenceable(1) @.str.3)
          to label %.critedge unwind label %42

.critedge:                                        ; preds = %14
  %15 = getelementptr inbounds i8, ptr %3, i64 32
  %16 = load i8, ptr %15, align 8
  %17 = and i8 %16, 1
  %.not.i.i.i.i = icmp eq i8 %17, 0
  br i1 %.not.i.i.i.i, label %_ZNSt8optionalINSt7__cxx1112basic_stringIcSt11char_traitsIcESaIcEEEED2Ev.exit, label %18

18:                                               ; preds = %.critedge
  store i8 0, ptr %15, align 8
  %19 = load ptr, ptr %3, align 8
  %20 = getelementptr inbounds i8, ptr %3, i64 16
  %21 = icmp eq ptr %19, %20
  br i1 %21, label %_ZNKSt7__cxx1112basic_stringIcSt11char_traitsIcESaIcEE11_M_is_localEv.exit.thread.i.i.i.i.i.i.i, label %_ZNKSt7__cxx1112basic_stringIcSt11char_traitsIcESaIcEE11_M_is_localEv.exit.i.i.i.i.i.i.i

_ZNKSt7__cxx1112basic_stringIcSt11char_traitsIcESaIcEE11_M_is_localEv.exit.thread.i.i.i.i.i.i.i: ; preds = %18
  %22 = getelementptr inbounds i8, ptr %3, i64 8
  %23 = load i64, ptr %22, align 8
  %24 = icmp ult i64 %23, 16
  call void @llvm.assume(i1 %24)
  br label %_ZNSt22_Optional_payload_baseINSt7__cxx1112basic_stringIcSt11char_traitsIcESaIcEEEE10_M_destroyEv.exit.i.i.i.i

_ZNKSt7__cxx1112basic_stringIcSt11char_traitsIcESaIcEE11_M_is_localEv.exit.i.i.i.i.i.i.i: ; preds = %18
  call void @_ZdlPv(ptr noundef %19) #24
  br label %_ZNSt22_Optional_payload_baseINSt7__cxx1112basic_stringIcSt11char_traitsIcESaIcEEEE10_M_destroyEv.exit.i.i.i.i

_ZNSt22_Optional_payload_baseINSt7__cxx1112basic_stringIcSt11char_traitsIcESaIcEEEE10_M_destroyEv.exit.i.i.i.i: ; preds = %_ZNKSt7__cxx1112basic_stringIcSt11char_traitsIcESaIcEE11_M_is_localEv.exit.i.i.i.i.i.i.i, %_ZNKSt7__cxx1112basic_stringIcSt11char_traitsIcESaIcEE11_M_is_localEv.exit.thread.i.i.i.i.i.i.i
  call void @_ZNSaIcED2Ev(ptr noundef nonnull align 1 dereferenceable(1) %3) #23
  br label %_ZNSt8optionalINSt7__cxx1112basic_stringIcSt11char_traitsIcESaIcEEEED2Ev.exit

_ZNSt8optionalINSt7__cxx1112basic_stringIcSt11char_traitsIcESaIcEEEED2Ev.exit: ; preds = %.critedge, %_ZNSt22_Optional_payload_baseINSt7__cxx1112basic_stringIcSt11char_traitsIcESaIcEEEE10_M_destroyEv.exit.i.i.i.i
  %25 = load ptr, ptr %4, align 8
  %26 = getelementptr inbounds i8, ptr %4, i64 16
  %27 = icmp eq ptr %25, %26
  br i1 %27, label %_ZNKSt7__cxx1112basic_stringIcSt11char_traitsIcESaIcEE11_M_is_localEv.exit.thread.i.i, label %_ZNKSt7__cxx1112basic_stringIcSt11char_traitsIcESaIcEE11_M_is_localEv.exit.i.i

_ZNKSt7__cxx1112basic_stringIcSt11char_traitsIcESaIcEE11_M_is_localEv.exit.thread.i.i: ; preds = %_ZNSt8optionalINSt7__cxx1112basic_stringIcSt11char_traitsIcESaIcEEEED2Ev.exit
  %28 = getelementptr inbounds i8, ptr %4, i64 8
  %29 = load i64, ptr %28, align 8
  %30 = icmp ult i64 %29, 16
  call void @llvm.assume(i1 %30)
  br label %_ZNSt7__cxx1112basic_stringIcSt11char_traitsIcESaIcEED2Ev.exit

_ZNKSt7__cxx1112basic_stringIcSt11char_traitsIcESaIcEE11_M_is_localEv.exit.i.i: ; preds = %_ZNSt8optionalINSt7__cxx1112basic_stringIcSt11char_traitsIcESaIcEEEED2Ev.exit
  call void @_ZdlPv(ptr noundef %25) #24
  br label %_ZNSt7__cxx1112basic_stringIcSt11char_traitsIcESaIcEED2Ev.exit

_ZNSt7__cxx1112basic_stringIcSt11char_traitsIcESaIcEED2Ev.exit: ; preds = %_ZNKSt7__cxx1112basic_stringIcSt11char_traitsIcESaIcEE11_M_is_localEv.exit.thread.i.i, %_ZNKSt7__cxx1112basic_stringIcSt11char_traitsIcESaIcEE11_M_is_localEv.exit.i.i
  call void @_ZNSaIcED2Ev(ptr noundef nonnull align 1 dereferenceable(1) %4) #23
  br label %.critedge34

.critedge34:                                      ; preds = %10, %_ZNSt7__cxx1112basic_stringIcSt11char_traitsIcESaIcEED2Ev.exit
  %.sink = phi ptr [ %5, %_ZNSt7__cxx1112basic_stringIcSt11char_traitsIcESaIcEED2Ev.exit ], [ %2, %10 ]
  call void @_ZNSaIcED1Ev(ptr noundef nonnull align 1 dereferenceable(1) %.sink) #23
  %31 = getelementptr inbounds i8, ptr %0, i64 8
  %32 = load i64, ptr %31, align 8
  %33 = icmp eq i64 %32, 0
  br i1 %33, label %34, label %52

34:                                               ; preds = %.critedge34
  %35 = call ptr @__cxa_allocate_exception(i64 376) #23
  call void @_ZNSaIcEC1Ev(ptr noundef nonnull align 1 dereferenceable(1) %7) #23
  invoke void @_ZNSt7__cxx1112basic_stringIcSt11char_traitsIcESaIcEEC2IS3_EEPKcRKS3_(ptr noundef nonnull align 8 dereferenceable(32) %6, ptr noundef nonnull @.str.4, ptr noundef nonnull align 1 dereferenceable(1) %7)
          to label %36 unwind label %.thread37

36:                                               ; preds = %34
  invoke void @_ZN3nix5ErrorCI2NS_9BaseErrorEIJEEERKNSt7__cxx1112basic_stringIcSt11char_traitsIcESaIcEEEDpRKT_(ptr noundef nonnull align 8 dereferenceable(376) %35, ptr noundef nonnull align 8 dereferenceable(32) %6)
          to label %37 unwind label %48

37:                                               ; preds = %36
  invoke void @__cxa_throw(ptr nonnull %35, ptr nonnull @_ZTIN3nix5ErrorE, ptr nonnull @_ZN3nix5ErrorD2Ev) #25
          to label %54 unwind label %48

38:                                               ; preds = %12
  %39 = landingpad { ptr, i32 }
          cleanup
  br label %.thread35

40:                                               ; preds = %13
  %41 = landingpad { ptr, i32 }
          cleanup
  br label %44

42:                                               ; preds = %14
  %43 = landingpad { ptr, i32 }
          cleanup
  call void @_ZNSt8optionalINSt7__cxx1112basic_stringIcSt11char_traitsIcESaIcEEEED2Ev(ptr noundef nonnull align 8 dereferenceable(40) %3) #23
  br label %44

44:                                               ; preds = %40, %42
  %.pn = phi { ptr, i32 } [ %43, %42 ], [ %41, %40 ]
  call void @_ZNSt7__cxx1112basic_stringIcSt11char_traitsIcESaIcEED2Ev(ptr noundef nonnull align 8 dereferenceable(32) %4) #23
  br label %.thread35

.thread35:                                        ; preds = %44, %38
  %.pn.pn = phi { ptr, i32 } [ %.pn, %44 ], [ %39, %38 ]
  call void @_ZNSaIcED1Ev(ptr noundef nonnull align 1 dereferenceable(1) %5) #23
  br label %53

45:                                               ; preds = %10
  %46 = landingpad { ptr, i32 }
          cleanup
  call void @_ZNSaIcED1Ev(ptr noundef nonnull align 1 dereferenceable(1) %2) #23
  br label %53

.thread37:                                        ; preds = %34
  %47 = landingpad { ptr, i32 }
          cleanup
  call void @_ZNSaIcED1Ev(ptr noundef nonnull align 1 dereferenceable(1) %7) #23
  br label %50

48:                                               ; preds = %36, %37
  %.0 = phi i1 [ false, %37 ], [ true, %36 ]
  %49 = landingpad { ptr, i32 }
          cleanup
  call void @_ZNSt7__cxx1112basic_stringIcSt11char_traitsIcESaIcEED2Ev(ptr noundef nonnull align 8 dereferenceable(32) %6) #23
  call void @_ZNSaIcED1Ev(ptr noundef nonnull align 1 dereferenceable(1) %7) #23
  br i1 %.0, label %50, label %51

50:                                               ; preds = %.thread37, %48
  %.pn3041 = phi { ptr, i32 } [ %47, %.thread37 ], [ %49, %48 ]
  call void @__cxa_free_exception(ptr %35) #23
  br label %51

51:                                               ; preds = %50, %48
  %.pn3040 = phi { ptr, i32 } [ %.pn3041, %50 ], [ %49, %48 ]
  call void @_ZNSt7__cxx1112basic_stringIcSt11char_traitsIcESaIcEED2Ev(ptr noundef nonnull align 8 dereferenceable(32) %0) #23
  br label %53

52:                                               ; preds = %.critedge34
  ret void

53:                                               ; preds = %.thread35, %45, %51
  %.pn30.pn = phi { ptr, i32 } [ %.pn3040, %51 ], [ %46, %45 ], [ %.pn.pn, %.thread35 ]
  resume { ptr, i32 } %.pn30.pn

54:                                               ; preds = %37
  unreachable
}